target datalayout = "e-m:e-p270:32:32-p271:32:32-p272:64:64-i64:64-i128:128-f80:128-n8:16:32:64-S128"
target triple = "x86_64-pc-linux-gnu"

@_ZN5osgeo4proj14CurlFileHandleD1Ev = hidden unnamed_addr alias void (ptr), ptr @_ZN5osgeo4proj14CurlFileHandleD2Ev

; Function Attrs: mustprogress nounwind uwtable
define internal void @_ZN5osgeo4projL13pj_curl_closeEP6pj_ctxP19PROJ_NETWORK_HANDLEPv(ptr noundef %0, ptr noundef %1, ptr noundef %2) #6 {
  %4 = alloca ptr, align 8
  %5 = alloca ptr, align 8
  %6 = alloca ptr, align 8
  store ptr %0, ptr %4, align 8, !tbaa !10
  store ptr %1, ptr %5, align 8, !tbaa !165
  store ptr %2, ptr %6, align 8, !tbaa !132
  %7 = load ptr, ptr %5, align 8, !tbaa !165
  %8 = icmp eq ptr %7, null
  br i1 %8, label %10, label %9

9:                                                ; preds = %3
  call void @_ZN5osgeo4proj14CurlFileHandleD1Ev(ptr noundef nonnull align 8 dereferenceable(393) %7) #4
  call void @_ZdlPvm(ptr noundef %7, i64 noundef 400) #26
  br label %10

10:                                               ; preds = %9, %3
  ret void
}