; Function Attrs: mustprogress nounwind uwtable
define internal void @_ZN5osgeo4projL13pj_curl_closeEP6pj_ctxP19PROJ_NETWORK_HANDLEPv(ptr readnone captures(none) %0, ptr noundef %1, ptr readnone captures(none) %2) #7 {
  %4 = icmp eq ptr %1, null
  br i1 %4, label %6, label %5

5:                                                ; preds = %3
  tail call void @_ZN5osgeo4proj14CurlFileHandleD2Ev(ptr noundef nonnull align 8 dereferenceable(393) %1) #30
  tail call void @_ZdlPvm(ptr noundef nonnull %1, i64 noundef 400) #31
  br label %6

6:                                                ; preds = %5, %3
  ret void
}